target datalayout = "e-m:e-p270:32:32-p271:32:32-p272:64:64-i64:64-i128:128-f80:128-n8:16:32:64-S128"
target triple = "x86_64-unknown-linux-gnu"

%"class.std::set.0" = type { %"class.std::_Rb_tree.1" }
%"class.std::_Rb_tree.1" = type { %"struct.std::_Rb_tree<QuantLib::Observer *, QuantLib::Observer *, std::_Identity<QuantLib::Observer *>, std::less<QuantLib::Observer *>>::_Rb_tree_impl" }
%"struct.std::_Rb_tree<QuantLib::Observer *, QuantLib::Observer *, std::_Identity<QuantLib::Observer *>, std::less<QuantLib::Observer *>>::_Rb_tree_impl" = type { [8 x i8], %"struct.std::_Rb_tree_header" }
%"struct.std::_Rb_tree_header" = type { %"struct.std::_Rb_tree_node_base", i64 }
%"struct.std::_Rb_tree_node_base" = type { i32, ptr, ptr, ptr }
%"class.std::set" = type { %"class.std::_Rb_tree" }
%"class.std::_Rb_tree" = type { %"struct.std::_Rb_tree<boost::shared_ptr<QuantLib::Observable>, boost::shared_ptr<QuantLib::Observable>, std::_Identity<boost::shared_ptr<QuantLib::Observable>>, std::less<boost::shared_ptr<QuantLib::Observable>>>::_Rb_tree_impl" }
%"struct.std::_Rb_tree<boost::shared_ptr<QuantLib::Observable>, boost::shared_ptr<QuantLib::Observable>, std::_Identity<boost::shared_ptr<QuantLib::Observable>>, std::less<boost::shared_ptr<QuantLib::Observable>>>::_Rb_tree_impl" = type { [8 x i8], %"struct.std::_Rb_tree_header" }
%"class.boost::detail::shared_count" = type { ptr }
%"class.QuantLib::Observable" = type { ptr, %"class.std::set.0" }
%"class.QuantLib::Observer" = type { ptr, %"class.std::set" }
%"class.QuantLib::Schedule" = type { %"class.boost::optional", %"class.QuantLib::Calendar", i32, %"class.boost::optional.51", %"class.boost::optional.52", %"class.boost::optional.54", %"class.QuantLib::Date", %"class.QuantLib::Date", %"class.std::vector.30", %"class.std::vector.56" }
%"class.boost::optional" = type { %"class.boost::optional_detail::optional_base" }
%"class.boost::optional_detail::optional_base" = type { i8, [3 x i8], %"class.boost::optional_detail::aligned_storage" }
%"class.boost::optional_detail::aligned_storage" = type { %"union.boost::optional_detail::aligned_storage<QuantLib::Period>::dummy_u" }
%"union.boost::optional_detail::aligned_storage<QuantLib::Period>::dummy_u" = type { [8 x i8] }
%"class.boost::optional.51" = type { %"class.boost::optional_detail::tc_optional_base" }
%"class.boost::optional_detail::tc_optional_base" = type { i8, i32 }
%"class.boost::optional.52" = type { %"class.boost::optional_detail::tc_optional_base.53" }
%"class.boost::optional_detail::tc_optional_base.53" = type { i8, i32 }
%"class.boost::optional.54" = type { %"class.boost::optional_detail::tc_optional_base.55" }
%"class.boost::optional_detail::tc_optional_base.55" = type { i8, i8 }
%"class.QuantLib::Date" = type { i64 }
%"class.std::vector.30" = type { %"struct.std::_Vector_base.31" }
%"struct.std::_Vector_base.31" = type { %"struct.std::_Vector_base<QuantLib::Date, std::allocator<QuantLib::Date>>::_Vector_impl" }
%"struct.std::_Vector_base<QuantLib::Date, std::allocator<QuantLib::Date>>::_Vector_impl" = type { %"struct.std::_Vector_base<QuantLib::Date, std::allocator<QuantLib::Date>>::_Vector_impl_data" }
%"struct.std::_Vector_base<QuantLib::Date, std::allocator<QuantLib::Date>>::_Vector_impl_data" = type { ptr, ptr, ptr }
%"class.std::vector.56" = type { %"struct.std::_Bvector_base" }
%"struct.std::_Bvector_base" = type { %"struct.std::_Bvector_base<std::allocator<bool>>::_Bvector_impl" }
%"struct.std::_Bvector_base<std::allocator<bool>>::_Bvector_impl" = type { %"struct.std::_Bvector_base<std::allocator<bool>>::_Bvector_impl_data" }
%"struct.std::_Bvector_base<std::allocator<bool>>::_Bvector_impl_data" = type { %"struct.std::_Bit_iterator", %"struct.std::_Bit_iterator", ptr }
%"struct.std::_Bit_iterator" = type { %"struct.std::_Bit_iterator_base.base", [4 x i8] }
%"struct.std::_Bit_iterator_base.base" = type <{ ptr, i32 }>
%"class.std::vector.35" = type { %"struct.std::_Vector_base.36" }
%"struct.std::_Vector_base.36" = type { %"struct.std::_Vector_base<double, std::allocator<double>>::_Vector_impl" }
%"struct.std::_Vector_base<double, std::allocator<double>>::_Vector_impl" = type { %"struct.std::_Vector_base<double, std::allocator<double>>::_Vector_impl_data" }
%"struct.std::_Vector_base<double, std::allocator<double>>::_Vector_impl_data" = type { ptr, ptr, ptr }
%"class.QuantLib::DayCounter" = type { %"class.boost::shared_ptr.16" }
%"class.boost::shared_ptr.16" = type { ptr, %"class.boost::detail::shared_count" }
%"class.QuantLib::Period" = type { i32, i32 }
%"class.QuantLib::Calendar" = type { %"class.boost::shared_ptr.17" }
%"class.boost::shared_ptr.17" = type { ptr, %"class.boost::detail::shared_count" }
%"class.boost::shared_ptr.60" = type { ptr, %"class.boost::detail::shared_count" }
%"class.QuantLib::YearOnYearInflationSwap" = type { %"class.QuantLib::Swap.base", i32, double, %"class.QuantLib::Schedule", double, %"class.QuantLib::DayCounter", %"class.QuantLib::Schedule", %"class.boost::shared_ptr.60", %"class.QuantLib::Period", double, %"class.QuantLib::DayCounter", %"class.QuantLib::Calendar", i32, double, double, %"class.QuantLib::Observable", %"class.QuantLib::Observer" }
%"class.QuantLib::Swap.base" = type { %"class.QuantLib::Instrument.base", %"class.std::vector.61", %"class.std::vector.35", %"class.std::vector.35", %"class.std::vector.35", %"class.std::vector.35", %"class.std::vector.35", double }
%"class.QuantLib::Instrument.base" = type { %"class.QuantLib::LazyObject.base", double, double, %"class.QuantLib::Date", %"class.std::map.18", %"class.boost::shared_ptr.24" }
%"class.QuantLib::LazyObject.base" = type <{ ptr, i8, i8, i8, i8 }>
%"class.std::map.18" = type { %"class.std::_Rb_tree.19" }
%"class.std::_Rb_tree.19" = type { %"struct.std::_Rb_tree<std::__cxx11::basic_string<char>, std::pair<const std::__cxx11::basic_string<char>, boost::any>, std::_Select1st<std::pair<const std::__cxx11::basic_string<char>, boost::any>>, std::less<std::__cxx11::basic_string<char>>>::_Rb_tree_impl" }
%"struct.std::_Rb_tree<std::__cxx11::basic_string<char>, std::pair<const std::__cxx11::basic_string<char>, boost::any>, std::_Select1st<std::pair<const std::__cxx11::basic_string<char>, boost::any>>, std::less<std::__cxx11::basic_string<char>>>::_Rb_tree_impl" = type { [8 x i8], %"struct.std::_Rb_tree_header" }
%"class.boost::shared_ptr.24" = type { ptr, %"class.boost::detail::shared_count" }
%"class.std::vector.61" = type { %"struct.std::_Vector_base.62" }
%"struct.std::_Vector_base.62" = type { %"struct.std::_Vector_base<std::vector<boost::shared_ptr<QuantLib::CashFlow>>, std::allocator<std::vector<boost::shared_ptr<QuantLib::CashFlow>>>>::_Vector_impl" }
%"struct.std::_Vector_base<std::vector<boost::shared_ptr<QuantLib::CashFlow>>, std::allocator<std::vector<boost::shared_ptr<QuantLib::CashFlow>>>>::_Vector_impl" = type { %"struct.std::_Vector_base<std::vector<boost::shared_ptr<QuantLib::CashFlow>>, std::allocator<std::vector<boost::shared_ptr<QuantLib::CashFlow>>>>::_Vector_impl_data" }
%"struct.std::_Vector_base<std::vector<boost::shared_ptr<QuantLib::CashFlow>>, std::allocator<std::vector<boost::shared_ptr<QuantLib::CashFlow>>>>::_Vector_impl_data" = type { ptr, ptr, ptr }
%"class.QuantLib::Swap" = type { %"class.QuantLib::Instrument.base", %"class.std::vector.61", %"class.std::vector.35", %"class.std::vector.35", %"class.std::vector.35", %"class.std::vector.35", %"class.std::vector.35", double, %"class.QuantLib::Observable", %"class.QuantLib::Observer" }
%"class.QuantLib::Null" = type { i8 }
%"class.QuantLib::YearOnYearInflationSwap::results" = type { %"class.QuantLib::Swap::results", double, double }
%"class.QuantLib::Swap::results" = type { %"class.QuantLib::Instrument::results", %"class.std::vector.35", %"class.std::vector.35", %"class.std::vector.35", %"class.std::vector.35", double }
%"class.QuantLib::Instrument::results" = type { %"class.QuantLib::PricingEngine::results", double, double, %"class.QuantLib::Date", %"class.std::map.18" }
%"class.QuantLib::PricingEngine::results" = type { ptr }
%"class.QuantLib::Instrument" = type { %"class.QuantLib::LazyObject.base", double, double, %"class.QuantLib::Date", %"class.std::map.18", %"class.boost::shared_ptr.24", %"class.QuantLib::Observable", %"class.QuantLib::Observer" }

@_ZTIN8QuantLib13PricingEngine7resultsE = linkonce_odr constant { ptr, ptr } { ptr getelementptr inbounds (ptr, ptr @_ZTVN10__cxxabiv117__class_type_infoE, i64 2), ptr @_ZTSN8QuantLib13PricingEngine7resultsE }, comdat, align 8
@_ZTIN8QuantLib23YearOnYearInflationSwap7resultsE = constant { ptr, ptr, ptr } { ptr getelementptr inbounds (ptr, ptr @_ZTVN10__cxxabiv120__si_class_type_infoE, i64 2), ptr @_ZTSN8QuantLib23YearOnYearInflationSwap7resultsE, ptr @_ZTIN8QuantLib4Swap7resultsE }, align 8

; Function Attrs: mustprogress nounwind uwtable
define linkonce_odr noundef float @_ZNSt14numeric_limitsIfE3maxEv() #1 comdat align 2 {
entry:
  ret float 0x47EFFFFFE0000000
}

; Function Attrs: mustprogress nounwind uwtable
define linkonce_odr noundef float @_ZN8QuantLib6detail17FloatingPointNullILb1EE9nullValueEv() #1 comdat align 2 {
entry:
  %call = call noundef float @_ZNSt14numeric_limitsIfE3maxEv() #15
  ret float %call
}

; Function Attrs: mustprogress nounwind uwtable
define linkonce_odr noundef nonnull align 8 dereferenceable(8) ptr @_ZNSt6vectorIdSaIdEEixEm(ptr noundef nonnull align 8 dereferenceable(24) %this, i64 noundef %__n) #1 comdat align 2 {
entry:
  %this.addr = alloca ptr, align 8
  %__n.addr = alloca i64, align 8
  store ptr %this, ptr %this.addr, align 8, !tbaa !3
  store i64 %__n, ptr %__n.addr, align 8, !tbaa !98
  %this1 = load ptr, ptr %this.addr, align 8
  %_M_impl = getelementptr inbounds nuw %"struct.std::_Vector_base.36", ptr %this1, i32 0, i32 0
  %_M_start = getelementptr inbounds nuw %"struct.std::_Vector_base<double, std::allocator<double>>::_Vector_impl_data", ptr %_M_impl, i32 0, i32 0
  %0 = load ptr, ptr %_M_start, align 8, !tbaa !104
  %1 = load i64, ptr %__n.addr, align 8, !tbaa !98
  %add.ptr = getelementptr inbounds nuw double, ptr %0, i64 %1
  ret ptr %add.ptr
}

; Function Attrs: mustprogress uwtable
define linkonce_odr noundef double @_ZNK8QuantLib4NullIdEcvdEv(ptr noundef nonnull align 1 dereferenceable(1) %this) #2 comdat align 2 {
entry:
  %this.addr = alloca ptr, align 8
  store ptr %this, ptr %this.addr, align 8, !tbaa !3
  %call = call noundef float @_ZN8QuantLib6detail17FloatingPointNullILb1EE9nullValueEv()
  %conv = fpext float %call to double
  ret double %conv
}

; Function Attrs: mustprogress uwtable
define void @_ZNK8QuantLib23YearOnYearInflationSwap12fetchResultsEPKNS_13PricingEngine7resultsE(ptr noundef nonnull align 8 dereferenceable(656) %this, ptr noundef %r) unnamed_addr #2 align 2 {
entry:
  %this.addr = alloca ptr, align 8
  %r.addr = alloca ptr, align 8
  %results = alloca ptr, align 8
  %ref.tmp = alloca %"class.QuantLib::Null", align 1
  %ref.tmp3 = alloca %"class.QuantLib::Null", align 1
  %ref.tmp7 = alloca %"class.QuantLib::Null", align 1
  %ref.tmp12 = alloca %"class.QuantLib::Null", align 1
  %ref.tmp23 = alloca %"class.QuantLib::Null", align 1
  %ref.tmp29 = alloca %"class.QuantLib::Null", align 1
  store ptr %this, ptr %this.addr, align 8, !tbaa !3
  store ptr %r, ptr %r.addr, align 8, !tbaa !3
  %this1 = load ptr, ptr %this.addr, align 8
  %0 = load ptr, ptr %r.addr, align 8, !tbaa !3
  call void @_ZNK8QuantLib4Swap12fetchResultsEPKNS_13PricingEngine7resultsE(ptr noundef nonnull align 8 dereferenceable(256) %this1, ptr noundef %0)
  call void @llvm.lifetime.start.p0(i64 8, ptr %results) #15
  %1 = load ptr, ptr %r.addr, align 8, !tbaa !3
  %2 = icmp eq ptr %1, null
  br i1 %2, label %dynamic_cast.null, label %dynamic_cast.notnull

dynamic_cast.notnull:                             ; preds = %entry
  %3 = call ptr @__dynamic_cast(ptr %1, ptr @_ZTIN8QuantLib13PricingEngine7resultsE, ptr @_ZTIN8QuantLib23YearOnYearInflationSwap7resultsE, i64 -1) #15
  br label %dynamic_cast.end

dynamic_cast.null:                                ; preds = %entry
  br label %dynamic_cast.end

dynamic_cast.end:                                 ; preds = %dynamic_cast.null, %dynamic_cast.notnull
  %4 = phi ptr [ %3, %dynamic_cast.notnull ], [ null, %dynamic_cast.null ]
  store ptr %4, ptr %results, align 8, !tbaa !3
  %5 = load ptr, ptr %results, align 8, !tbaa !3
  %cmp = icmp ne ptr %5, null
  br i1 %cmp, label %if.then, label %if.else

if.then:                                          ; preds = %dynamic_cast.end
  %6 = load ptr, ptr %results, align 8, !tbaa !3
  %fairRate = getelementptr inbounds nuw %"class.QuantLib::YearOnYearInflationSwap::results", ptr %6, i32 0, i32 1
  %7 = load double, ptr %fairRate, align 8, !tbaa !131
  %fairRate_ = getelementptr inbounds nuw %"class.QuantLib::YearOnYearInflationSwap", ptr %this1, i32 0, i32 13
  store double %7, ptr %fairRate_, align 8, !tbaa !129
  %8 = load ptr, ptr %results, align 8, !tbaa !3
  %fairSpread = getelementptr inbounds nuw %"class.QuantLib::YearOnYearInflationSwap::results", ptr %8, i32 0, i32 2
  %9 = load double, ptr %fairSpread, align 8, !tbaa !135
  %fairSpread_ = getelementptr inbounds nuw %"class.QuantLib::YearOnYearInflationSwap", ptr %this1, i32 0, i32 14
  store double %9, ptr %fairSpread_, align 8, !tbaa !130
  br label %if.end

if.else:                                          ; preds = %dynamic_cast.end
  call void @llvm.lifetime.start.p0(i64 1, ptr %ref.tmp) #15
  %call = call noundef double @_ZNK8QuantLib4NullIdEcvdEv(ptr noundef nonnull align 1 dereferenceable(1) %ref.tmp)
  %fairRate_2 = getelementptr inbounds nuw %"class.QuantLib::YearOnYearInflationSwap", ptr %this1, i32 0, i32 13
  store double %call, ptr %fairRate_2, align 8, !tbaa !129
  call void @llvm.lifetime.end.p0(i64 1, ptr %ref.tmp) #15
  call void @llvm.lifetime.start.p0(i64 1, ptr %ref.tmp3) #15
  %call4 = call noundef double @_ZNK8QuantLib4NullIdEcvdEv(ptr noundef nonnull align 1 dereferenceable(1) %ref.tmp3)
  %fairSpread_5 = getelementptr inbounds nuw %"class.QuantLib::YearOnYearInflationSwap", ptr %this1, i32 0, i32 14
  store double %call4, ptr %fairSpread_5, align 8, !tbaa !130
  call void @llvm.lifetime.end.p0(i64 1, ptr %ref.tmp3) #15
  br label %if.end

if.end:                                           ; preds = %if.else, %if.then
  %fairRate_6 = getelementptr inbounds nuw %"class.QuantLib::YearOnYearInflationSwap", ptr %this1, i32 0, i32 13
  %10 = load double, ptr %fairRate_6, align 8, !tbaa !129
  call void @llvm.lifetime.start.p0(i64 1, ptr %ref.tmp7) #15
  %call8 = call noundef double @_ZNK8QuantLib4NullIdEcvdEv(ptr noundef nonnull align 1 dereferenceable(1) %ref.tmp7)
  %cmp9 = fcmp oeq double %10, %call8
  call void @llvm.lifetime.end.p0(i64 1, ptr %ref.tmp7) #15
  br i1 %cmp9, label %if.then10, label %if.end21

if.then10:                                        ; preds = %if.end
  %legBPS_ = getelementptr inbounds nuw %"class.QuantLib::Swap", ptr %this1, i32 0, i32 4
  %call11 = call noundef nonnull align 8 dereferenceable(8) ptr @_ZNSt6vectorIdSaIdEEixEm(ptr noundef nonnull align 8 dereferenceable(24) %legBPS_, i64 noundef 0) #15
  %11 = load double, ptr %call11, align 8, !tbaa !26
  call void @llvm.lifetime.start.p0(i64 1, ptr %ref.tmp12) #15
  %call13 = call noundef double @_ZNK8QuantLib4NullIdEcvdEv(ptr noundef nonnull align 1 dereferenceable(1) %ref.tmp12)
  %cmp14 = fcmp une double %11, %call13
  call void @llvm.lifetime.end.p0(i64 1, ptr %ref.tmp12) #15
  br i1 %cmp14, label %if.then15, label %if.end20

if.then15:                                        ; preds = %if.then10
  %fixedRate_ = getelementptr inbounds nuw %"class.QuantLib::YearOnYearInflationSwap", ptr %this1, i32 0, i32 4
  %12 = load double, ptr %fixedRate_, align 8, !tbaa !83
  %NPV_ = getelementptr inbounds nuw %"class.QuantLib::Instrument", ptr %this1, i32 0, i32 1
  %13 = load double, ptr %NPV_, align 8, !tbaa !136
  %legBPS_16 = getelementptr inbounds nuw %"class.QuantLib::Swap", ptr %this1, i32 0, i32 4
  %call17 = call noundef nonnull align 8 dereferenceable(8) ptr @_ZNSt6vectorIdSaIdEEixEm(ptr noundef nonnull align 8 dereferenceable(24) %legBPS_16, i64 noundef 0) #15
  %14 = load double, ptr %call17, align 8, !tbaa !26
  %div = fdiv double %14, 1.000000e-04
  %div18 = fdiv double %13, %div
  %sub = fsub double %12, %div18
  %fairRate_19 = getelementptr inbounds nuw %"class.QuantLib::YearOnYearInflationSwap", ptr %this1, i32 0, i32 13
  store double %sub, ptr %fairRate_19, align 8, !tbaa !129
  br label %if.end20

if.end20:                                         ; preds = %if.then15, %if.then10
  br label %if.end21

if.end21:                                         ; preds = %if.end20, %if.end
  %fairSpread_22 = getelementptr inbounds nuw %"class.QuantLib::YearOnYearInflationSwap", ptr %this1, i32 0, i32 14
  %15 = load double, ptr %fairSpread_22, align 8, !tbaa !130
  call void @llvm.lifetime.start.p0(i64 1, ptr %ref.tmp23) #15
  %call24 = call noundef double @_ZNK8QuantLib4NullIdEcvdEv(ptr noundef nonnull align 1 dereferenceable(1) %ref.tmp23)
  %cmp25 = fcmp oeq double %15, %call24
  call void @llvm.lifetime.end.p0(i64 1, ptr %ref.tmp23) #15
  br i1 %cmp25, label %if.then26, label %if.end41

if.then26:                                        ; preds = %if.end21
  %legBPS_27 = getelementptr inbounds nuw %"class.QuantLib::Swap", ptr %this1, i32 0, i32 4
  %call28 = call noundef nonnull align 8 dereferenceable(8) ptr @_ZNSt6vectorIdSaIdEEixEm(ptr noundef nonnull align 8 dereferenceable(24) %legBPS_27, i64 noundef 1) #15
  %16 = load double, ptr %call28, align 8, !tbaa !26
  call void @llvm.lifetime.start.p0(i64 1, ptr %ref.tmp29) #15
  %call30 = call noundef double @_ZNK8QuantLib4NullIdEcvdEv(ptr noundef nonnull align 1 dereferenceable(1) %ref.tmp29)
  %cmp31 = fcmp une double %16, %call30
  call void @llvm.lifetime.end.p0(i64 1, ptr %ref.tmp29) #15
  br i1 %cmp31, label %if.then32, label %if.end40

if.then32:                                        ; preds = %if.then26
  %spread_ = getelementptr inbounds nuw %"class.QuantLib::YearOnYearInflationSwap", ptr %this1, i32 0, i32 9
  %17 = load double, ptr %spread_, align 8, !tbaa !87
  %NPV_33 = getelementptr inbounds nuw %"class.QuantLib::Instrument", ptr %this1, i32 0, i32 1
  %18 = load double, ptr %NPV_33, align 8, !tbaa !136
  %legBPS_34 = getelementptr inbounds nuw %"class.QuantLib::Swap", ptr %this1, i32 0, i32 4
  %call35 = call noundef nonnull align 8 dereferenceable(8) ptr @_ZNSt6vectorIdSaIdEEixEm(ptr noundef nonnull align 8 dereferenceable(24) %legBPS_34, i64 noundef 1) #15
  %19 = load double, ptr %call35, align 8, !tbaa !26
  %div36 = fdiv double %19, 1.000000e-04
  %div37 = fdiv double %18, %div36
  %sub38 = fsub double %17, %div37
  %fairSpread_39 = getelementptr inbounds nuw %"class.QuantLib::YearOnYearInflationSwap", ptr %this1, i32 0, i32 14
  store double %sub38, ptr %fairSpread_39, align 8, !tbaa !130
  br label %if.end40

if.end40:                                         ; preds = %if.then32, %if.then26
  br label %if.end41

if.end41:                                         ; preds = %if.end40, %if.end21
  call void @llvm.lifetime.end.p0(i64 8, ptr %results) #15
  ret void
}